target datalayout = "e-m:e-p270:32:32-p271:32:32-p272:64:64-i64:64-i128:128-f80:128-n8:16:32:64-S128"
target triple = "x86_64-pc-linux-gnu"

%struct.decrypt_data = type { i8, %struct._address, i32, i32, i32, i32, i64, i64, i32, i32, i32, ptr, i32, ptr, i32, [256 x i8], i32, ptr, i32 }
%struct._address = type { i32, i32, ptr, ptr }

; Function Attrs: nounwind null_pointer_is_valid sspstrong uwtable
define internal i32 @ikev1_find_gcry_md_algo(i32 noundef %0) #11 {
  %2 = alloca i32, align 4
  %3 = alloca i32, align 4
  store i32 %0, ptr %3, align 4
  %4 = load i32, ptr %3, align 4
  switch i32 %4, label %10 [
    i32 1, label %5
    i32 2, label %6
    i32 4, label %7
    i32 5, label %8
    i32 6, label %9
  ]

5:                                                ; preds = %1
  store i32 1, ptr %2, align 4
  br label %11

6:                                                ; preds = %1
  store i32 2, ptr %2, align 4
  br label %11

7:                                                ; preds = %1
  store i32 8, ptr %2, align 4
  br label %11

8:                                                ; preds = %1
  store i32 9, ptr %2, align 4
  br label %11

9:                                                ; preds = %1
  store i32 10, ptr %2, align 4
  br label %11

10:                                               ; preds = %1
  store i32 0, ptr %2, align 4
  br label %11

11:                                               ; preds = %10, %9, %8, %7, %6, %5
  %12 = load i32, ptr %2, align 4
  ret i32 %12
}

; Function Attrs: nounwind null_pointer_is_valid sspstrong uwtable
define internal i32 @ikev1_find_gcry_cipher_algo(i32 noundef %0, i32 noundef %1) #11 {
  %3 = alloca i32, align 4
  %4 = alloca i32, align 4
  %5 = alloca i32, align 4
  store i32 %0, ptr %4, align 4
  store i32 %1, ptr %5, align 4
  %6 = load i32, ptr %4, align 4
  switch i32 %6, label %15 [
    i32 5, label %7
    i32 1, label %8
    i32 7, label %9
  ]

7:                                                ; preds = %2
  store i32 2, ptr %3, align 4
  br label %16

8:                                                ; preds = %2
  store i32 302, ptr %3, align 4
  br label %16

9:                                                ; preds = %2
  %10 = load i32, ptr %5, align 4
  switch i32 %10, label %14 [
    i32 128, label %11
    i32 192, label %12
    i32 256, label %13
  ]

11:                                               ; preds = %9
  store i32 7, ptr %3, align 4
  br label %16

12:                                               ; preds = %9
  store i32 8, ptr %3, align 4
  br label %16

13:                                               ; preds = %9
  store i32 9, ptr %3, align 4
  br label %16

14:                                               ; preds = %9
  store i32 0, ptr %3, align 4
  br label %16

15:                                               ; preds = %2
  store i32 0, ptr %3, align 4
  br label %16

16:                                               ; preds = %15, %14, %13, %12, %11, %8, %7
  %17 = load i32, ptr %3, align 4
  ret i32 %17
}

; Function Attrs: null_pointer_is_valid sspstrong uwtable
define internal zeroext i1 @prepare_phase1_iv(ptr noundef %0) #0 {
  %2 = alloca i1, align 1
  %3 = alloca ptr, align 8
  %4 = alloca ptr, align 8
  %5 = alloca i32, align 4
  store ptr %0, ptr %3, align 8
  call void @llvm.lifetime.start.p0(i64 8, ptr %4) #16
  %6 = load ptr, ptr %3, align 8
  %7 = getelementptr inbounds nuw %struct.decrypt_data, ptr %6, i32 0, i32 11
  %8 = load ptr, ptr %7, align 8
  %9 = load ptr, ptr %3, align 8
  %10 = getelementptr inbounds nuw %struct.decrypt_data, ptr %9, i32 0, i32 12
  %11 = load i32, ptr %10, align 8
  %12 = zext i32 %11 to i64
  %13 = load ptr, ptr %3, align 8
  %14 = getelementptr inbounds nuw %struct.decrypt_data, ptr %13, i32 0, i32 13
  %15 = load ptr, ptr %14, align 8
  %16 = load ptr, ptr %3, align 8
  %17 = getelementptr inbounds nuw %struct.decrypt_data, ptr %16, i32 0, i32 14
  %18 = load i32, ptr %17, align 8
  %19 = zext i32 %18 to i64
  %20 = load ptr, ptr %3, align 8
  %21 = getelementptr inbounds nuw %struct.decrypt_data, ptr %20, i32 0, i32 8
  %22 = load i32, ptr %21, align 8
  %23 = load ptr, ptr %3, align 8
  %24 = getelementptr inbounds nuw %struct.decrypt_data, ptr %23, i32 0, i32 7
  %25 = load i64, ptr %24, align 8
  %26 = call ptr @generate_iv(ptr noundef %8, i64 noundef %12, ptr noundef %15, i64 noundef %19, i32 noundef %22, i64 noundef %25)
  store ptr %26, ptr %4, align 8
  %27 = load ptr, ptr %4, align 8
  %28 = icmp ne ptr %27, null
  br i1 %28, label %30, label %29

29:                                               ; preds = %1
  store i1 false, ptr %2, align 1
  store i32 1, ptr %5, align 4
  br label %36

30:                                               ; preds = %1
  %31 = load ptr, ptr %3, align 8
  %32 = getelementptr inbounds nuw %struct.decrypt_data, ptr %31, i32 0, i32 17
  %33 = load ptr, ptr %32, align 8
  %34 = load ptr, ptr %4, align 8
  %35 = call i32 @g_hash_table_insert(ptr noundef %33, ptr noundef null, ptr noundef %34)
  store i1 true, ptr %2, align 1
  store i32 1, ptr %5, align 4
  br label %36

36:                                               ; preds = %30, %29
  call void @llvm.lifetime.end.p0(i64 8, ptr %4) #16
  %37 = load i1, ptr %2, align 1
  ret i1 %37
}

; Function Attrs: null_pointer_is_valid sspstrong uwtable
define internal zeroext i1 @prepare_decrypt_params(ptr noundef %0) #0 {
  %2 = alloca i1, align 1
  %3 = alloca ptr, align 8
  store ptr %0, ptr %3, align 8
  %4 = load ptr, ptr %3, align 8
  %5 = getelementptr inbounds nuw %struct.decrypt_data, ptr %4, i32 0, i32 2
  %6 = load i32, ptr %5, align 8
  %7 = load ptr, ptr %3, align 8
  %8 = getelementptr inbounds nuw %struct.decrypt_data, ptr %7, i32 0, i32 3
  %9 = load i32, ptr %8, align 4
  %10 = call i32 @ikev1_find_gcry_cipher_algo(i32 noundef %6, i32 noundef %9)
  %11 = load ptr, ptr %3, align 8
  %12 = getelementptr inbounds nuw %struct.decrypt_data, ptr %11, i32 0, i32 5
  store i32 %10, ptr %12, align 4
  %13 = load ptr, ptr %3, align 8
  %14 = getelementptr inbounds nuw %struct.decrypt_data, ptr %13, i32 0, i32 4
  %15 = load i32, ptr %14, align 8
  %16 = call i32 @ikev1_find_gcry_md_algo(i32 noundef %15)
  %17 = load ptr, ptr %3, align 8
  %18 = getelementptr inbounds nuw %struct.decrypt_data, ptr %17, i32 0, i32 8
  store i32 %16, ptr %18, align 8
  %19 = load ptr, ptr %3, align 8
  %20 = getelementptr inbounds nuw %struct.decrypt_data, ptr %19, i32 0, i32 5
  %21 = load i32, ptr %20, align 4
  %22 = icmp eq i32 %21, 0
  br i1 %22, label %28, label %23

23:                                               ; preds = %1
  %24 = load ptr, ptr %3, align 8
  %25 = getelementptr inbounds nuw %struct.decrypt_data, ptr %24, i32 0, i32 8
  %26 = load i32, ptr %25, align 8
  %27 = icmp eq i32 %26, 0
  br i1 %27, label %28, label %29

28:                                               ; preds = %23, %1
  store i1 false, ptr %2, align 1
  br label %78

29:                                               ; preds = %23
  %30 = load ptr, ptr %3, align 8
  %31 = getelementptr inbounds nuw %struct.decrypt_data, ptr %30, i32 0, i32 5
  %32 = load i32, ptr %31, align 4
  %33 = call i64 @gcry_cipher_get_algo_keylen(i32 noundef %32)
  %34 = load ptr, ptr %3, align 8
  %35 = getelementptr inbounds nuw %struct.decrypt_data, ptr %34, i32 0, i32 6
  store i64 %33, ptr %35, align 8
  %36 = load ptr, ptr %3, align 8
  %37 = getelementptr inbounds nuw %struct.decrypt_data, ptr %36, i32 0, i32 5
  %38 = load i32, ptr %37, align 4
  %39 = call i64 @gcry_cipher_get_algo_blklen(i32 noundef %38)
  %40 = load ptr, ptr %3, align 8
  %41 = getelementptr inbounds nuw %struct.decrypt_data, ptr %40, i32 0, i32 7
  store i64 %39, ptr %41, align 8
  %42 = load ptr, ptr %3, align 8
  %43 = getelementptr inbounds nuw %struct.decrypt_data, ptr %42, i32 0, i32 8
  %44 = load i32, ptr %43, align 8
  %45 = call i32 @gcry_md_get_algo_dlen(i32 noundef %44)
  %46 = load ptr, ptr %3, align 8
  %47 = getelementptr inbounds nuw %struct.decrypt_data, ptr %46, i32 0, i32 9
  store i32 %45, ptr %47, align 4
  %48 = load ptr, ptr %3, align 8
  %49 = getelementptr inbounds nuw %struct.decrypt_data, ptr %48, i32 0, i32 16
  %50 = load i32, ptr %49, align 4
  %51 = zext i32 %50 to i64
  %52 = load ptr, ptr %3, align 8
  %53 = getelementptr inbounds nuw %struct.decrypt_data, ptr %52, i32 0, i32 6
  %54 = load i64, ptr %53, align 8
  %55 = icmp ult i64 %51, %54
  br i1 %55, label %65, label %56

56:                                               ; preds = %29
  %57 = load ptr, ptr %3, align 8
  %58 = getelementptr inbounds nuw %struct.decrypt_data, ptr %57, i32 0, i32 9
  %59 = load i32, ptr %58, align 4
  %60 = zext i32 %59 to i64
  %61 = load ptr, ptr %3, align 8
  %62 = getelementptr inbounds nuw %struct.decrypt_data, ptr %61, i32 0, i32 7
  %63 = load i64, ptr %62, align 8
  %64 = icmp ult i64 %60, %63
  br i1 %64, label %65, label %66

65:                                               ; preds = %56, %29
  store i1 false, ptr %2, align 1
  br label %78

66:                                               ; preds = %56
  %67 = load ptr, ptr %3, align 8
  %68 = getelementptr inbounds nuw %struct.decrypt_data, ptr %67, i32 0, i32 12
  %69 = load i32, ptr %68, align 8
  %70 = icmp eq i32 %69, 0
  br i1 %70, label %76, label %71

71:                                               ; preds = %66
  %72 = load ptr, ptr %3, align 8
  %73 = getelementptr inbounds nuw %struct.decrypt_data, ptr %72, i32 0, i32 14
  %74 = load i32, ptr %73, align 8
  %75 = icmp eq i32 %74, 0
  br i1 %75, label %76, label %77

76:                                               ; preds = %71, %66
  store i1 false, ptr %2, align 1
  br label %78

77:                                               ; preds = %71
  store i1 true, ptr %2, align 1
  br label %78

78:                                               ; preds = %77, %76, %65, %28
  %79 = load i1, ptr %2, align 1
  ret i1 %79
}

; Function Attrs: null_pointer_is_valid sspstrong uwtable
define internal zeroext i1 @prepare_decrypt(ptr noundef %0) #0 {
  %2 = alloca i1, align 1
  %3 = alloca ptr, align 8
  %4 = alloca i8, align 1
  %5 = alloca i32, align 4
  store ptr %0, ptr %3, align 8
  call void @llvm.lifetime.start.p0(i64 1, ptr %4) #16
  %6 = load ptr, ptr %3, align 8
  %7 = icmp ne ptr %6, null
  br i1 %7, label %9, label %8

8:                                                ; preds = %1
  store i1 false, ptr %2, align 1
  store i32 1, ptr %5, align 4
  br label %33

9:                                                ; preds = %1
  %10 = load ptr, ptr %3, align 8
  %11 = getelementptr inbounds nuw %struct.decrypt_data, ptr %10, i32 0, i32 18
  %12 = load i32, ptr %11, align 8
  %13 = icmp eq i32 %12, 0
  br i1 %13, label %14, label %28

14:                                               ; preds = %9
  %15 = load ptr, ptr %3, align 8
  %16 = call zeroext i1 @prepare_decrypt_params(ptr noundef %15)
  br i1 %16, label %17, label %20

17:                                               ; preds = %14
  %18 = load ptr, ptr %3, align 8
  %19 = call zeroext i1 @prepare_phase1_iv(ptr noundef %18)
  br label %20

20:                                               ; preds = %17, %14
  %21 = phi i1 [ false, %14 ], [ %19, %17 ]
  %22 = zext i1 %21 to i8
  store i8 %22, ptr %4, align 1
  %23 = load i8, ptr %4, align 1, !range !6, !noundef !7
  %24 = trunc i8 %23 to i1
  %25 = select i1 %24, i32 1, i32 2
  %26 = load ptr, ptr %3, align 8
  %27 = getelementptr inbounds nuw %struct.decrypt_data, ptr %26, i32 0, i32 18
  store i32 %25, ptr %27, align 8
  br label %28

28:                                               ; preds = %20, %9
  %29 = load ptr, ptr %3, align 8
  %30 = getelementptr inbounds nuw %struct.decrypt_data, ptr %29, i32 0, i32 18
  %31 = load i32, ptr %30, align 8
  %32 = icmp eq i32 %31, 1
  store i1 %32, ptr %2, align 1
  store i32 1, ptr %5, align 4
  br label %33

33:                                               ; preds = %28, %8
  call void @llvm.lifetime.end.p0(i64 1, ptr %4) #16
  %34 = load i1, ptr %2, align 1
  ret i1 %34
}